(lp1
V\u000a
aV 
aV\u4e00
aV\u4e01
aV\u4e03
aV\u4e07
aV\u4e09
aV\u4e0a
aV\u4e0b
aV\u4e0d
aV\u4e0e
aV\u4e11
aV\u4e13
aV\u4e16
aV\u4e18
aV\u4e1a
aV\u4e1b
aV\u4e1c
aV\u4e22
aV\u4e24
aV\u4e25
aV\u4e27
aV\u4e2a
aV\u4e2d
aV\u4e32
aV\u4e34
aV\u4e39
aV\u4e3a
aV\u4e3b
aV\u4e3d
aV\u4e3e
aV\u4e43
aV\u4e45
aV\u4e48
aV\u4e49
aV\u4e4b
aV\u4e4c
aV\u4e4e
aV\u4e50
aV\u4e52
aV\u4e53
aV\u4e54
aV\u4e56
aV\u4e58
aV\u4e5d
aV\u4e5f
aV\u4e60
aV\u4e61
aV\u4e66
aV\u4e70
aV\u4e71
aV\u4e7e
aV\u4e86
aV\u4e88
aV\u4e89
aV\u4e8b
aV\u4e8c
aV\u4e8e
aV\u4e8f
aV\u4e91
aV\u4e92
aV\u4e94
aV\u4e9a
aV\u4e9b
aV\u4ea4
aV\u4ea7
aV\u4eab
aV\u4eac
aV\u4ead
aV\u4eae
aV\u4eb2
aV\u4eba
aV\u4ec0
aV\u4ec1
aV\u4ec4
aV\u4ec5
aV\u4ec7
aV\u4eca
aV\u4ecb
aV\u4ecd
aV\u4ece
aV\u4ed4
aV\u4ed5
aV\u4ed6
aV\u4ed7
aV\u4ed8
aV\u4ed9
aV\u4ee3
aV\u4ee4
aV\u4ee5
aV\u4eea
aV\u4eec
aV\u4ef0
aV\u4ef6
aV\u4ef7
aV\u4efb
aV\u4efd
aV\u4eff
aV\u4f0a
aV\u4f0f
aV\u4f11
aV\u4f17
aV\u4f18
aV\u4f1a
aV\u4f1e
aV\u4f1f
aV\u4f20
aV\u4f24
aV\u4f26
aV\u4f2a
aV\u4f2b
aV\u4f2f
aV\u4f34
aV\u4f38
aV\u4f3c
aV\u4f3d
aV\u4f46
aV\u4f4d
aV\u4f4e
aV\u4f4f
aV\u4f53
aV\u4f55
aV\u4f59
aV\u4f5b
aV\u4f5c
aV\u4f60
aV\u4f73
aV\u4f7f
aV\u4f9b
aV\u4f9d
aV\u4fa0
aV\u4fa7
aV\u4fac
aV\u4fb5
aV\u4fbf
aV\u4fca
aV\u4fcf
aV\u4fd7
aV\u4fdd
aV\u4fe1
aV\u4fee
aV\u4fef
aV\u5012
aV\u5014
aV\u5019
aV\u501f
aV\u5026
aV\u503a
aV\u503c
aV\u503e
aV\u5047
aV\u504e
aV\u504f
aV\u505a
aV\u505c
aV\u5065
aV\u5076
aV\u5077
aV\u5080
aV\u508d
aV\u50b2
aV\u50bb
aV\u50cf
aV\u50e7
aV\u5112
aV\u5121
aV\u513f
aV\u5143
aV\u5144
aV\u5145
aV\u5146
aV\u5148
aV\u5149
aV\u514b
aV\u514d
aV\u515c
aV\u5165
aV\u5168
aV\u516b
aV\u516c
aV\u516d
aV\u516e
aV\u5170
aV\u5171
aV\u5173
aV\u5174
aV\u5175
aV\u5176
aV\u5177
aV\u5178
aV\u517b
aV\u517d
aV\u5185
aV\u5189
aV\u518c
aV\u518d
aV\u5192
aV\u5199
aV\u519b
aV\u519c
aV\u51a0
aV\u51a5
aV\u51ac
aV\u51b0
aV\u51b2
aV\u51b3
aV\u51b5
aV\u51b7
aV\u51c0
aV\u51c4
aV\u51c6
aV\u51c9
aV\u51cb
aV\u51cc
aV\u51cf
aV\u51d1
aV\u51dd
aV\u51e0
aV\u51e1
aV\u51e4
aV\u51ed
aV\u51ef
aV\u51f6
aV\u51fa
aV\u51fb
aV\u51ff
aV\u5200
aV\u5206
aV\u5207
aV\u5212
aV\u5217
aV\u5219
aV\u521a
aV\u521b
aV\u521d
aV\u5220
aV\u5224
aV\u5229
aV\u522b
aV\u522e
aV\u5230
aV\u5236
aV\u5237
aV\u5238
aV\u5239
aV\u523a
aV\u523b
aV\u524a
aV\u524d
aV\u5251
aV\u5254
aV\u5265
aV\u5267
aV\u5269
aV\u526a
aV\u526f
aV\u5272
aV\u529b
aV\u529d
aV\u529e
aV\u529f
aV\u52a0
aV\u52a1
aV\u52a8
aV\u52a9
aV\u52aa
aV\u52ab
aV\u52b1
aV\u52b3
aV\u52bf
aV\u52c7
aV\u52c9
aV\u52d2
aV\u52fe
aV\u5305
aV\u5306
aV\u5316
aV\u5317
aV\u5319
aV\u5320
aV\u5339
aV\u533a
aV\u533b
aV\u5341
aV\u5343
aV\u5347
aV\u5348
aV\u534a
aV\u534e
aV\u534f
aV\u5351
aV\u5353
aV\u5355
aV\u5356
aV\u5357
aV\u535c
aV\u5360
aV\u5361
aV\u5370
aV\u5371
aV\u5373
aV\u5374
aV\u5375
aV\u5377
aV\u5385
aV\u5386
aV\u5389
aV\u538b
aV\u538c
aV\u5398
aV\u539a
aV\u539f
aV\u53a2
aV\u53ae
aV\u53bb
aV\u53c2
aV\u53c8
aV\u53ca
aV\u53cb
aV\u53cc
aV\u53cd
aV\u53d1
aV\u53d4
aV\u53d6
aV\u53d7
aV\u53d8
aV\u53db
aV\u53e0
aV\u53e3
aV\u53e4
aV\u53e5
aV\u53e6
aV\u53e8
aV\u53e9
aV\u53ea
aV\u53eb
aV\u53ed
aV\u53ee
aV\u53ef
aV\u53f0
aV\u53f2
aV\u53f3
aV\u53f6
aV\u53f7
aV\u53f8
aV\u53f9
aV\u53fd
aV\u5403
aV\u5404
aV\u5408
aV\u5409
aV\u540c
aV\u540d
aV\u540e
aV\u5410
aV\u5411
aV\u5413
aV\u5417
aV\u541b
aV\u541d
aV\u541e
aV\u541f
aV\u5426
aV\u5427
aV\u542b
aV\u542c
aV\u542d
aV\u542f
aV\u5434
aV\u5435
aV\u5438
aV\u5439
aV\u543b
aV\u543c
aV\u5440
aV\u5446
aV\u5448
aV\u544a
aV\u5450
aV\u5458
aV\u545c
aV\u5462
aV\u5466
aV\u5468
aV\u5473
aV\u5475
aV\u5478
aV\u547c
aV\u547d
aV\u5486
aV\u548c
aV\u548f
aV\u5492
aV\u5495
aV\u5496
aV\u549a
aV\u54a7
aV\u54a9
aV\u54aa
aV\u54ab
aV\u54ac
aV\u54b1
aV\u54bf
aV\u54c0
aV\u54c1
aV\u54c7
aV\u54c8
aV\u54cd
aV\u54ce
aV\u54d1
aV\u54d2
aV\u54df
aV\u54e5
aV\u54e6
aV\u54e8
aV\u54e9
aV\u54ea
aV\u54ed
aV\u54ee
aV\u54fc
aV\u5507
aV\u5509
aV\u550f
aV\u5510
aV\u551b
aV\u5524
aV\u552f
aV\u5530
aV\u5531
aV\u5543
aV\u5546
aV\u554a
aV\u555c
aV\u5561
aV\u5564
aV\u5565
aV\u5566
aV\u556c
aV\u5570
aV\u5575
aV\u5578
aV\u5582
aV\u5584
aV\u5587
aV\u5589
aV\u558a
aV\u5594
aV\u5598
aV\u559c
aV\u559d
aV\u55a7
aV\u55b5
aV\u55b7
aV\u55dc
aV\u55e6
aV\u55e8
aV\u55f7
aV\u5609
aV\u5618
aV\u561b
aV\u561f
aV\u5632
aV\u5634
aV\u5636
aV\u563b
aV\u563f
aV\u564c
aV\u5654
aV\u5657
aV\u5659
aV\u565c
aV\u5668
aV\u566c
aV\u568e
aV\u56a3
aV\u56da
aV\u56db
aV\u56de
aV\u56e0
aV\u56e2
aV\u56ed
aV\u56f0
aV\u56f1
aV\u56f4
aV\u56fa
aV\u56fd
aV\u56fe
aV\u5706
aV\u5708
aV\u571f
aV\u5723
aV\u5728
aV\u5730
aV\u573a
aV\u573e
aV\u5740
aV\u5747
aV\u574a
aV\u574f
aV\u5750
aV\u5757
aV\u575a
aV\u575b
aV\u575e
aV\u575f
aV\u5760
aV\u5761
aV\u5766
aV\u5782
aV\u5783
aV\u578b
aV\u5792
aV\u57a6
aV\u57c3
aV\u57cb
aV\u57ce
aV\u57d5
aV\u57f9
aV\u57fa
aV\u5802
aV\u5806
aV\u5815
aV\u5821
aV\u5824
aV\u582a
aV\u5835
aV\u584c
aV\u5854
aV\u585e
aV\u586b
aV\u5883
aV\u5893
aV\u5899
aV\u589f
aV\u58a8
aV\u58c1
aV\u58d5
aV\u58e4
aV\u58eb
aV\u58f0
aV\u58f3
aV\u58f6
aV\u5904
aV\u5907
aV\u590d
aV\u590f
aV\u5915
aV\u5916
aV\u591a
aV\u591c
aV\u591f
aV\u5927
aV\u5929
aV\u592a
aV\u592b
aV\u5931
aV\u5934
aV\u5937
aV\u5938
aV\u5939
aV\u5947
aV\u5948
aV\u594b
aV\u594f
aV\u5951
aV\u5954
aV\u5956
aV\u5957
aV\u5965
aV\u5973
aV\u5976
aV\u5978
aV\u5979
aV\u597d
aV\u5982
aV\u5986
aV\u5988
aV\u5992
aV\u5996
aV\u5999
aV\u59a5
aV\u59b9
aV\u59c6
aV\u59cb
aV\u59d0
aV\u59d1
aV\u59d3
aV\u59d4
aV\u59e5
aV\u59fb
aV\u59ff
aV\u5a01
aV\u5a07
aV\u5a18
aV\u5a1c
aV\u5a46
aV\u5a49
aV\u5a5a
aV\u5a6a
aV\u5a9a
aV\u5ac9
aV\u5acc
aV\u5ae3
aV\u5ae9
aV\u5b09
aV\u5b50
aV\u5b54
aV\u5b57
aV\u5b58
aV\u5b5d
aV\u5b5f
aV\u5b63
aV\u5b64
aV\u5b66
aV\u5b69
aV\u5b81
aV\u5b83
aV\u5b85
aV\u5b87
aV\u5b88
aV\u5b89
aV\u5b8b
aV\u5b8c
aV\u5b97
aV\u5b98
aV\u5b99
aV\u5b9a
aV\u5b9c
aV\u5b9d
aV\u5b9e
aV\u5ba0
aV\u5ba2
aV\u5ba3
aV\u5ba4
aV\u5ba6
aV\u5bab
aV\u5bb0
aV\u5bb3
aV\u5bb4
aV\u5bb6
aV\u5bb9
aV\u5bbd
aV\u5bbf
aV\u5bc2
aV\u5bc4
aV\u5bc6
aV\u5bc7
aV\u5bd2
aV\u5bde
aV\u5bdf
aV\u5be5
aV\u5bf8
aV\u5bf9
aV\u5bfa
aV\u5bfb
aV\u5bfc
aV\u5c01
aV\u5c04
aV\u5c06
aV\u5c0a
aV\u5c0f
aV\u5c11
aV\u5c14
aV\u5c16
aV\u5c18
aV\u5c1a
aV\u5c1d
aV\u5c2c
aV\u5c31
aV\u5c34
aV\u5c38
aV\u5c3a
aV\u5c3c
aV\u5c3d
aV\u5c3e
aV\u5c40
aV\u5c41
aV\u5c42
aV\u5c45
aV\u5c48
aV\u5c49
aV\u5c4b
aV\u5c4c
aV\u5c4f
aV\u5c51
aV\u5c55
aV\u5c5e
aV\u5c60
aV\u5c71
aV\u5c81
aV\u5c82
aV\u5c96
aV\u5c9a
aV\u5c9b
aV\u5ca9
aV\u5cb8
aV\u5ce1
aV\u5cf0
aV\u5d07
aV\u5d0e
aV\u5d16
aV\u5d29
aV\u5d69
aV\u5dc5
aV\u5dde
aV\u5de2
aV\u5de5
aV\u5de6
aV\u5de7
aV\u5de8
aV\u5deb
aV\u5dee
aV\u5df1
aV\u5df2
aV\u5df4
aV\u5df7
aV\u5dfe
aV\u5e01
aV\u5e02
aV\u5e03
aV\u5e05
aV\u5e08
aV\u5e0c
aV\u5e16
aV\u5e18
aV\u5e1d
aV\u5e26
aV\u5e2d
aV\u5e2e
aV\u5e37
aV\u5e38
aV\u5e3d
aV\u5e44
aV\u5e45
aV\u5e55
aV\u5e72
aV\u5e73
aV\u5e74
aV\u5e76
aV\u5e78
aV\u5e7b
aV\u5e7c
aV\u5e7d
aV\u5e7f
aV\u5e84
aV\u5e86
aV\u5e8a
aV\u5e8f
aV\u5e94
aV\u5e95
aV\u5e97
aV\u5e9c
aV\u5e9e
aV\u5e9f
aV\u5ea6
aV\u5ea7
aV\u5ead
aV\u5eb7
aV\u5eb8
aV\u5ec9
aV\u5eca
aV\u5ed3
aV\u5ef6
aV\u5ef7
aV\u5efa
aV\u5f00
aV\u5f02
aV\u5f03
aV\u5f04
aV\u5f0f
aV\u5f13
aV\u5f15
aV\u5f1f
aV\u5f20
aV\u5f25
aV\u5f26
aV\u5f27
aV\u5f2f
aV\u5f31
aV\u5f39
aV\u5f3a
aV\u5f52
aV\u5f53
aV\u5f55
aV\u5f62
aV\u5f69
aV\u5f71
aV\u5f77
aV\u5f79
aV\u5f7b
aV\u5f7c
aV\u5f80
aV\u5f81
aV\u5f85
aV\u5f88
aV\u5f8a
aV\u5f8b
aV\u5f8c
aV\u5f92
aV\u5f97
aV\u5f98
aV\u5fa1
aV\u5fae
aV\u5fbd
aV\u5fc3
aV\u5fc5
aV\u5fc6
aV\u5fcd
aV\u5fd1
aV\u5fd7
aV\u5fd8
aV\u5fd9
aV\u5fe0
aV\u5fe7
aV\u5feb
aV\u5ff5
aV\u5ffd
aV\u5ffe
aV\u5fff
aV\u6000
aV\u6001
aV\u600e
aV\u6012
aV\u6015
aV\u601c
aV\u601d
aV\u6025
aV\u6027
aV\u6028
aV\u602a
aV\u602f
aV\u603b
aV\u603c
aV\u604b
aV\u604d
aV\u6050
aV\u6052
aV\u6055
aV\u6068
aV\u6069
aV\u606f
aV\u6070
aV\u6076
aV\u607c
aV\u6084
aV\u6089
aV\u6094
aV\u609f
aV\u60a8
aV\u60ac
aV\u60b2
aV\u60b4
aV\u60c5
aV\u60ca
aV\u60d1
aV\u60da
aV\u60dc
aV\u60e0
aV\u60e6
aV\u60e7
aV\u60e9
aV\u60eb
aV\u60ed
aV\u60ef
aV\u60f3
aV\u60f9
aV\u6101
aV\u6108
aV\u610f
aV\u611f
aV\u6127
aV\u612b
aV\u613f
aV\u6148
aV\u614c
aV\u6155
aV\u6162
aV\u6170
aV\u6194
aV\u61be
aV\u61c2
aV\u61ca
aV\u61e6
aV\u620f
aV\u6210
aV\u6211
aV\u6212
aV\u6216
aV\u6218
aV\u622a
aV\u6233
aV\u6234
aV\u623f
aV\u6240
aV\u6241
aV\u624b
aV\u624d
aV\u624e
aV\u6251
aV\u6253
aV\u6258
aV\u625b
aV\u6263
aV\u6267
aV\u6269
aV\u626b
aV\u626c
aV\u626d
aV\u626e
aV\u626f
aV\u6270
aV\u6279
aV\u627e
aV\u627f
aV\u6280
aV\u6284
aV\u6289
aV\u628a
aV\u6291
aV\u6293
aV\u6295
aV\u6296
aV\u6297
aV\u6298
aV\u629a
aV\u629b
aV\u62a2
aV\u62a4
aV\u62a5
aV\u62ab
aV\u62ac
aV\u62b1
aV\u62b5
aV\u62b9
aV\u62bd
aV\u62c5
aV\u62c6
aV\u62c7
aV\u62c9
aV\u62cc
aV\u62cd
aV\u62d0
aV\u62d2
aV\u62d3
aV\u62d6
aV\u62d9
aV\u62db
aV\u62dc
aV\u62e2
aV\u62e5
aV\u62e8
aV\u62e9
aV\u62ec
aV\u62ed
aV\u62ef
aV\u62f1
aV\u62f3
aV\u62fc
aV\u62fe
aV\u62ff
aV\u6301
aV\u6302
aV\u6307
aV\u6309
aV\u6311
aV\u6321
aV\u6323
aV\u6324
aV\u6325
aV\u6328
aV\u632b
aV\u633d
aV\u6346
aV\u6349
aV\u634f
aV\u6355
aV\u635e
aV\u635f
aV\u6361
aV\u6362
aV\u636e
aV\u6382
aV\u6389
aV\u638c
aV\u638f
aV\u6392
aV\u63a2
aV\u63a5
aV\u63a7
aV\u63a8
aV\u63a9
aV\u63ac
aV\u63b0
aV\u63cd
aV\u63cf
aV\u63d0
aV\u63d2
aV\u63e1
aV\u63ed
aV\u63f4
aV\u63fd
aV\u6401
aV\u6405
aV\u640f
aV\u6410
aV\u641c
aV\u641e
aV\u642c
aV\u642d
aV\u6444
aV\u6446
aV\u6447
aV\u644a
aV\u6454
aV\u6458
aV\u6467
aV\u6469
aV\u6478
aV\u6479
aV\u647a
aV\u6491
aV\u6492
aV\u6495
aV\u649e
aV\u64a4
aV\u64ad
aV\u64c0
aV\u64c5
aV\u64cd
aV\u64ce
aV\u64e6
aV\u6500
aV\u6518
aV\u652f
aV\u6536
aV\u6539
aV\u653b
aV\u653e
aV\u6545
aV\u6548
aV\u654c
aV\u654f
aV\u6551
aV\u6559
aV\u655b
aV\u655e
aV\u6562
aV\u6563
aV\u6566
aV\u656c
aV\u6570
aV\u6572
aV\u6574
aV\u6577
aV\u6587
aV\u6591
aV\u6597
aV\u6599
aV\u659c
aV\u65a4
aV\u65a9
aV\u65ad
aV\u65af
aV\u65b0
aV\u65b9
aV\u65bc
aV\u65bd
aV\u65c1
aV\u65c5
aV\u65cb
aV\u65cf
aV\u65d7
aV\u65e0
aV\u65e2
aV\u65e5
aV\u65e7
aV\u65e9
aV\u65f6
aV\u65f7
aV\u660e
aV\u660f
aV\u6613
aV\u6614
aV\u661f
aV\u6620
aV\u6625
aV\u6627
aV\u6628
aV\u662f
aV\u6635
aV\u663c
aV\u663e
aV\u6643
aV\u6652
aV\u6653
aV\u6655
aV\u6656
aV\u665a
aV\u6668
aV\u666f
aV\u6670
aV\u6674
aV\u6676
aV\u6682
aV\u6696
aV\u6697
aV\u66a7
aV\u66b4
aV\u66dd
aV\u66f2
aV\u66f4
aV\u66f9
aV\u66fc
aV\u66fe
aV\u66ff
aV\u6700
aV\u6708
aV\u6709
aV\u670b
aV\u670d
aV\u6717
aV\u671b
aV\u671d
aV\u671f
aV\u6726
aV\u6728
aV\u672a
aV\u672b
aV\u672c
aV\u672f
aV\u6731
aV\u6735
aV\u673a
aV\u673d
aV\u6740
aV\u6742
aV\u6743
aV\u6746
aV\u674e
aV\u6750
aV\u6751
aV\u6756
aV\u675c
aV\u675f
aV\u6761
aV\u6765
aV\u6768
aV\u676f
aV\u6770
aV\u6775
aV\u677e
aV\u677f
aV\u6781
aV\u6797
aV\u679a
aV\u679c
aV\u679d
aV\u67aa
aV\u67ab
aV\u67ad
aV\u67af
aV\u67b6
aV\u67d0
aV\u67d3
aV\u67d4
aV\u67dc
aV\u67e5
aV\u67f3
aV\u67f4
aV\u6807
aV\u6808
aV\u6811
aV\u6813
aV\u6821
aV\u6837
aV\u6838
aV\u6839
aV\u683c
aV\u683d
aV\u6843
aV\u6846
aV\u6848
aV\u684c
aV\u6851
aV\u6860
aV\u6865
aV\u6876
aV\u6881
aV\u68a2
aV\u68a6
aV\u68a8
aV\u68ad
aV\u68af
aV\u68c0
aV\u68c2
aV\u68cb
aV\u68cd
aV\u68d2
aV\u68ee
aV\u68f5
aV\u6905
aV\u690d
aV\u6930
aV\u6954
aV\u695a
aV\u6977
aV\u697c
aV\u6982
aV\u6989
aV\u699c
aV\u69ad
aV\u69bb
aV\u69df
aV\u6a1f
aV\u6a21
aV\u6a2a
aV\u6a31
aV\u6a61
aV\u6a71
aV\u6a80
aV\u6a90
aV\u6b20
aV\u6b21
aV\u6b22
aV\u6b23
aV\u6b27
aV\u6b32
aV\u6b38
aV\u6b3e
aV\u6b43
aV\u6b47
aV\u6b49
aV\u6b4c
aV\u6b62
aV\u6b63
aV\u6b64
aV\u6b65
aV\u6b66
aV\u6b7b
aV\u6b87
aV\u6b8b
aV\u6bb5
aV\u6bbf
aV\u6bc1
aV\u6bc5
aV\u6bcd
aV\u6bcf
aV\u6bd2
aV\u6bd4
aV\u6bd5
aV\u6bdb
aV\u6beb
aV\u6bef
aV\u6c11
aV\u6c13
aV\u6c14
aV\u6c27
aV\u6c34
aV\u6c38
aV\u6c41
aV\u6c42
aV\u6c47
aV\u6c49
aV\u6c50
aV\u6c57
aV\u6c5f
aV\u6c60
aV\u6c61
aV\u6c64
aV\u6c6a
aV\u6c70
aV\u6c79
aV\u6c7d
aV\u6c89
aV\u6c8f
aV\u6c99
aV\u6c9f
aV\u6ca1
aV\u6ca6
aV\u6ca7
aV\u6cae
aV\u6cb3
aV\u6cb8
aV\u6cb9
aV\u6cbb
aV\u6cbc
aV\u6cbe
aV\u6cc4
aV\u6cc9
aV\u6cca
aV\u6cd5
aV\u6cdb
aV\u6ce1
aV\u6ce2
aV\u6ce3
aV\u6ce5
aV\u6ce8
aV\u6cea
aV\u6cf0
aV\u6cf3
aV\u6cfc
aV\u6cfd
aV\u6d01
aV\u6d0b
aV\u6d12
aV\u6d17
aV\u6d1b
aV\u6d1e
aV\u6d2a
aV\u6d32
aV\u6d3b
aV\u6d3e
aV\u6d41
aV\u6d45
aV\u6d46
aV\u6d4b
aV\u6d53
aV\u6d69
aV\u6d6a
aV\u6d6e
aV\u6d74
aV\u6d77
aV\u6d78
aV\u6d82
aV\u6d88
aV\u6d8c
aV\u6d9f
aV\u6da1
aV\u6daf
aV\u6db2
aV\u6dc7
aV\u6dcb
aV\u6dcc
aV\u6dd8
aV\u6de1
aV\u6df1
aV\u6df7
aV\u6df9
aV\u6dfb
aV\u6e05
aV\u6e10
aV\u6e17
aV\u6e21
aV\u6e29
aV\u6e2f
aV\u6e32
aV\u6e34
aV\u6e38
aV\u6e3a
aV\u6e56
aV\u6e7e
aV\u6e7f
aV\u6e83
aV\u6e89
aV\u6e90
aV\u6e9c
aV\u6ea2
aV\u6eaa
aV\u6eb6
aV\u6ecb
aV\u6ed1
aV\u6eda
aV\u6ee1
aV\u6ee4
aV\u6ee9
aV\u6ef4
aV\u6f02
aV\u6f06
aV\u6f0f
aV\u6f14
aV\u6f20
aV\u6f2a
aV\u6f2b
aV\u6f31
aV\u6f3e
aV\u6f47
aV\u6f66
aV\u6f6e
aV\u6fa1
aV\u6fc0
aV\u6fe1
aV\u704c
aV\u706b
aV\u706d
aV\u706f
aV\u7070
aV\u7075
aV\u707e
aV\u707f
aV\u7089
aV\u708a
aV\u70ab
aV\u70ad
aV\u70ae
aV\u70b9
aV\u70bc
aV\u70c1
aV\u70c2
aV\u70c8
aV\u70ca
aV\u70d9
aV\u70db
aV\u70df
aV\u70e4
aV\u70e6
aV\u70e7
aV\u70eb
aV\u70ed
aV\u711a
aV\u7130
aV\u7136
aV\u714c
aV\u715e
aV\u7167
aV\u716e
aV\u7184
aV\u718f
aV\u7199
aV\u719f
aV\u71ac
aV\u71c3
aV\u71d5
aV\u71e5
aV\u722c
aV\u7231
aV\u7235
aV\u7236
aV\u7237
aV\u7238
aV\u7239
aV\u723d
aV\u7247
aV\u7248
aV\u724c
aV\u7259
aV\u725b
aV\u7261
aV\u7262
aV\u7267
aV\u7269
aV\u7272
aV\u7275
aV\u7279
aV\u727a
aV\u72af
aV\u72b6
aV\u72b9
aV\u72c2
aV\u72c8
aV\u72d0
aV\u72d7
aV\u72de
aV\u72e0
aV\u72e9
aV\u72ec
aV\u72ee
aV\u72f0
aV\u72f1
aV\u72f8
aV\u72fc
aV\u730e
aV\u731c
aV\u732a
aV\u732b
aV\u7334
aV\u7384
aV\u7387
aV\u7389
aV\u738b
aV\u73a9
aV\u73ab
aV\u73af
aV\u73b0
aV\u73bb
aV\u73c0
aV\u73cd
aV\u73ed
aV\u7403
aV\u7406
aV\u7409
aV\u7425
aV\u7433
aV\u7434
aV\u7435
aV\u7436
aV\u745e
aV\u745f
aV\u7470
aV\u7480
aV\u7483
aV\u74a8
aV\u74dc
aV\u74e3
aV\u74e6
aV\u74f6
aV\u74f7
aV\u7518
aV\u751a
aV\u751c
aV\u751f
aV\u7528
aV\u7529
aV\u7530
aV\u7531
aV\u7532
aV\u7535
aV\u7537
aV\u753b
aV\u7545
aV\u754c
aV\u754f
aV\u7554
aV\u7559
aV\u7565
aV\u756a
aV\u7591
aV\u7597
aV\u759a
aV\u75af
aV\u75b2
aV\u75bc
aV\u75c5
aV\u75d2
aV\u75d5
aV\u75d8
aV\u75db
aV\u75f9
aV\u7626
aV\u7634
aV\u763e
aV\u766b
aV\u767b
aV\u767d
aV\u767e
aV\u7684
aV\u7687
aV\u76ae
aV\u76ce
aV\u76cf
aV\u76d2
aV\u76d6
aV\u76d7
aV\u76d8
aV\u76db
aV\u76df
aV\u76ee
aV\u76ef
aV\u76f2
aV\u76f4
aV\u76f8
aV\u76fc
aV\u7709
aV\u770b
aV\u771f
aV\u7720
aV\u7737
aV\u7738
aV\u773a
aV\u773c
aV\u7740
aV\u7741
aV\u775b
aV\u7761
aV\u7763
aV\u776b
aV\u7779
aV\u778e
aV\u7791
aV\u7792
aV\u77a5
aV\u77a7
aV\u77ac
aV\u77b0
aV\u77b3
aV\u77e2
aV\u77e5
aV\u77ed
aV\u77f3
aV\u77ff
aV\u7801
aV\u7802
aV\u780d
aV\u7816
aV\u7834
aV\u7838
aV\u785d
aV\u786c
aV\u786e
aV\u788c
aV\u788d
aV\u788e
aV\u7891
aV\u7897
aV\u789f
aV\u78b0
aV\u78b3
aV\u78be
aV\u793a
aV\u793c
aV\u793e
aV\u7948
aV\u7959
aV\u795d
aV\u795e
aV\u795f
aV\u7968
aV\u796d
aV\u7977
aV\u7978
aV\u7981
aV\u7985
aV\u798f
aV\u79bb
aV\u79c0
aV\u79c1
aV\u79c3
aV\u79cb
aV\u79cd
aV\u79d2
aV\u79d8
aV\u79e9
aV\u79ef
aV\u79f0
aV\u79fb
aV\u7a00
aV\u7a0b
aV\u7a0d
aV\u7a0e
aV\u7a1a
aV\u7a33
aV\u7a3b
aV\u7a3d
aV\u7a3f
aV\u7a57
aV\u7a76
aV\u7a77
aV\u7a7a
aV\u7a7f
aV\u7a81
aV\u7a83
aV\u7a84
aV\u7a91
aV\u7a97
aV\u7a9c
aV\u7a9d
aV\u7aa5
aV\u7acb
aV\u7ad6
aV\u7ad9
aV\u7adf
aV\u7ae0
aV\u7ae5
aV\u7aef
aV\u7af9
aV\u7b06
aV\u7b11
aV\u7b14
aV\u7b1b
aV\u7b26
aV\u7b28
aV\u7b2c
aV\u7b3c
aV\u7b49
aV\u7b4b
aV\u7b50
aV\u7b51
aV\u7b54
aV\u7b5d
aV\u7b79
aV\u7b80
aV\u7b8d
aV\u7b97
aV\u7ba1
aV\u7ba9
aV\u7bad
aV\u7bb1
aV\u7bc6
aV\u7bc7
aV\u7bee
aV\u7bf1
aV\u7bf7
aV\u7c3f
aV\u7c73
aV\u7c7b
aV\u7c89
aV\u7ca5
aV\u7cb9
aV\u7cbd
aV\u7cbe
aV\u7cca
aV\u7cd5
aV\u7cd6
aV\u7cd7
aV\u7cdc
aV\u7cdf
aV\u7cfb
aV\u7d20
aV\u7d22
aV\u7d27
aV\u7d2f
aV\u7d6e
aV\u7e41
aV\u7ea0
aV\u7ea2
aV\u7ea6
aV\u7ea7
aV\u7eaa
aV\u7eac
aV\u7eaf
aV\u7eb1
aV\u7eb3
aV\u7eb5
aV\u7eb7
aV\u7eb8
aV\u7ebd
aV\u7ebf
aV\u7ec3
aV\u7ec4
aV\u7ec6
aV\u7ec8
aV\u7ecd
aV\u7ecf
aV\u7ed1
aV\u7ed3
aV\u7ed5
aV\u7ed8
aV\u7ed9
aV\u7edc
aV\u7edd
aV\u7edf
aV\u7ee3
aV\u7ee7
aV\u7eea
aV\u7eed
aV\u7ef3
aV\u7ef4
aV\u7ef7
aV\u7efc
aV\u7eff
aV\u7f13
aV\u7f15
aV\u7f16
aV\u7f18
aV\u7f1d
aV\u7f20
aV\u7f24
aV\u7f29
aV\u7f2d
aV\u7f34
aV\u7f38
aV\u7f3a
aV\u7f50
aV\u7f57
aV\u7f5a
aV\u7f69
aV\u7f6a
aV\u7f8a
aV\u7f8e
aV\u7f9e
aV\u7fa1
aV\u7fa4
aV\u7fbd
aV\u7fbf
aV\u7fc5
aV\u7fd4
aV\u7fd8
aV\u7fe0
aV\u7ff0
aV\u7ffb
aV\u7ffc
aV\u8000
aV\u8001
aV\u8003
aV\u8005
aV\u800c
aV\u800d
aV\u8010
aV\u8033
aV\u8036
aV\u803f
aV\u8043
aV\u804a
aV\u804b
aV\u8054
aV\u8089
aV\u808c
aV\u8096
aV\u809a
aV\u80a1
aV\u80a4
aV\u80a9
aV\u80ae
aV\u80af
aV\u80b2
aV\u80c1
aV\u80cc
aV\u80ce
aV\u80d6
aV\u80da
aV\u80dc
aV\u80e1
aV\u80e7
aV\u80ed
aV\u80f8
aV\u80fd
aV\u8102
aV\u8106
aV\u8109
aV\u810f
aV\u8111
aV\u811a
aV\u8131
aV\u8138
aV\u813e
aV\u8150
aV\u8154
aV\u8165
aV\u816e
aV\u8170
aV\u817b
aV\u817e
aV\u817f
aV\u8180
aV\u818f
aV\u819b
aV\u81c0
aV\u81c2
aV\u81ea
aV\u81f3
aV\u81f4
aV\u820c
aV\u820d
aV\u8212
aV\u821e
aV\u821f
aV\u8222
aV\u822a
aV\u822c
aV\u8231
aV\u8239
aV\u826f
aV\u8270
aV\u8272
aV\u8273
aV\u827a
aV\u827e
aV\u8282
aV\u828b
aV\u8292
aV\u8299
aV\u829c
aV\u82a6
aV\u82ac
aV\u82ad
aV\u82b1
aV\u82b3
aV\u82bd
aV\u82c7
aV\u82cd
aV\u82cf
aV\u82d4
aV\u82d7
aV\u82db
aV\u82de
aV\u82e5
aV\u82e6
aV\u82f1
aV\u82f9
aV\u8303
aV\u8304
aV\u8309
aV\u8327
aV\u832b
aV\u8335
aV\u8336
aV\u8349
aV\u8352
aV\u8361
aV\u8363
aV\u836b
aV\u836f
aV\u8377
aV\u8389
aV\u838e
aV\u8393
aV\u83ab
aV\u83b1
aV\u83b9
aV\u83ca
aV\u83dc
aV\u83e0
aV\u8404
aV\u840d
aV\u840e
aV\u8424
aV\u8425
aV\u8427
aV\u843d
aV\u8457
aV\u845b
aV\u8461
aV\u8463
aV\u846b
aV\u8499
aV\u84b2
aV\u84b8
aV\u84c9
aV\u84dd
aV\u84e6
aV\u84ec
aV\u8513
aV\u851a
aV\u8537
aV\u853d
aV\u8543
aV\u8549
aV\u854a
aV\u8568
aV\u857e
aV\u8584
aV\u8587
aV\u85c9
aV\u85cf
aV\u85d3
aV\u85e4
aV\u8654
aV\u865a
aV\u866b
aV\u8679
aV\u867d
aV\u867e
aV\u8681
aV\u8682
aV\u86c7
aV\u86cb
aV\u86db
aV\u86e6
aV\u86ee
aV\u8700
aV\u8702
aV\u8712
aV\u8713
aV\u8715
aV\u8717
aV\u8718
aV\u871c
aV\u8721
aV\u8725
aV\u873b
aV\u873f
aV\u8747
aV\u8749
aV\u8759
aV\u8760
aV\u876a
aV\u8774
aV\u8776
aV\u8782
aV\u878d
aV\u87d1
aV\u8822
aV\u8840
aV\u884c
aV\u884d
aV\u8857
aV\u8861
aV\u8863
aV\u8865
aV\u8868
aV\u886b
aV\u886c
aV\u8870
aV\u8877
aV\u8881
aV\u8885
aV\u888b
aV\u888d
aV\u88ab
aV\u88ad
aV\u88c1
aV\u88c2
aV\u88c5
aV\u88d9
aV\u88e4
aV\u8910
aV\u892a
aV\u897f
aV\u8981
aV\u8986
aV\u89c1
aV\u89c2
aV\u89c4
aV\u89c6
aV\u89c9
aV\u89d2
aV\u89e3
aV\u8a00
aV\u8a93
aV\u8b66
aV\u8ba1
aV\u8ba4
aV\u8ba8
aV\u8ba9
aV\u8baf
aV\u8bb0
aV\u8bb2
aV\u8bb6
aV\u8bb8
aV\u8bba
aV\u8bbd
aV\u8bbe
aV\u8bbf
aV\u8bc1
aV\u8bc5
aV\u8bc6
aV\u8bc9
aV\u8bcd
aV\u8bd1
aV\u8bd5
aV\u8bd7
aV\u8bda
aV\u8bdd
aV\u8bde
aV\u8be1
aV\u8be5
aV\u8be6
aV\u8bec
aV\u8bed
aV\u8bf1
aV\u8bf4
aV\u8bf5
aV\u8bf7
aV\u8bf8
aV\u8bfa
aV\u8bfb
aV\u8bfe
aV\u8c01
aV\u8c03
aV\u8c05
aV\u8c08
aV\u8c0e
aV\u8c13
aV\u8c1c
aV\u8c22
aV\u8c23
aV\u8c26
aV\u8c31
aV\u8c37
aV\u8c46
aV\u8c61
aV\u8c6a
aV\u8c6b
aV\u8c8c
aV\u8d1d
aV\u8d1f
aV\u8d23
aV\u8d25
aV\u8d27
aV\u8d28
aV\u8d2a
aV\u8d2f
aV\u8d34
aV\u8d35
aV\u8d39
aV\u8d3a
aV\u8d3c
aV\u8d4b
aV\u8d4c
aV\u8d4f
aV\u8d56
aV\u8d5a
aV\u8d5e
aV\u8d62
aV\u8d64
aV\u8d6b
aV\u8d70
aV\u8d76
aV\u8d77
aV\u8d81
aV\u8d85
aV\u8d8a
aV\u8d9f
aV\u8da3
aV\u8db3
aV\u8db4
aV\u8dc3
aV\u8dcc
aV\u8dd1
aV\u8ddd
aV\u8ddf
aV\u8de8
aV\u8de9
aV\u8def
aV\u8df3
aV\u8df7
aV\u8e0f
aV\u8e1e
aV\u8e22
aV\u8e29
aV\u8e2a
aV\u8e2e
aV\u8e31
aV\u8e44
aV\u8e48
aV\u8e59
aV\u8e66
aV\u8eab
aV\u8eac
aV\u8eaf
aV\u8eb2
aV\u8eba
aV\u8f66
aV\u8f68
aV\u8f6c
aV\u8f6e
aV\u8f6f
aV\u8f7b
aV\u8f7d
aV\u8f83
aV\u8f88
aV\u8f89
aV\u8f91
aV\u8f93
aV\u8f97
aV\u8f9b
aV\u8f9c
aV\u8fa3
aV\u8fa8
aV\u8fa9
aV\u8fb9
aV\u8fbd
aV\u8fbe
aV\u8fc1
aV\u8fc2
aV\u8fc7
aV\u8fce
aV\u8fd0
aV\u8fd1
aV\u8fd4
aV\u8fd8
aV\u8fd9
aV\u8fdb
aV\u8fdc
aV\u8fdd
aV\u8fde
aV\u8fdf
aV\u8fea
aV\u8feb
aV\u8fed
aV\u8ff0
aV\u8ff7
aV\u8ff9
aV\u8ffd
aV\u9000
aV\u9001
aV\u9002
aV\u9003
aV\u9005
aV\u9006
aV\u9009
aV\u900d
aV\u900f
aV\u9010
aV\u9012
aV\u9017
aV\u901a
aV\u901b
aV\u901f
aV\u9020
aV\u9022
aV\u9038
aV\u903c
aV\u9041
aV\u9047
aV\u904d
aV\u9053
aV\u9057
aV\u9065
aV\u906e
aV\u907f
aV\u9082
aV\u90a3
aV\u90aa
aV\u90ae
aV\u90bb
aV\u90c1
aV\u90ca
aV\u90ce
aV\u90e8
aV\u90fd
aV\u9119
aV\u914b
aV\u914d
aV\u9152
aV\u915d
aV\u9171
aV\u9175
aV\u9177
aV\u9178
aV\u917f
aV\u9187
aV\u9189
aV\u9192
aV\u91c7
aV\u91c9
aV\u91ca
aV\u91cc
aV\u91cd
aV\u91ce
aV\u91cf
aV\u91d1
aV\u9488
aV\u9493
aV\u949e
aV\u949f
aV\u94a2
aV\u94a5
aV\u94a9
aV\u94b1
aV\u94bb
aV\u94c1
aV\u94c3
aV\u94c5
aV\u94dc
aV\u94e9
aV\u94f6
aV\u94fa
aV\u9500
aV\u9501
aV\u9508
aV\u950b
aV\u9519
aV\u9523
aV\u9526
aV\u952e
aV\u9547
aV\u955c
aV\u957f
aV\u95e8
aV\u95ea
aV\u95ed
aV\u95ee
aV\u95ef
aV\u95f2
aV\u95f4
aV\u95f7
aV\u95f9
aV\u95fa
aV\u95fb
aV\u9601
aV\u9605
aV\u9614
aV\u9616
aV\u961f
aV\u9631
aV\u9632
aV\u9633
aV\u9634
aV\u9635
aV\u9636
aV\u963b
aV\u963f
aV\u9646
aV\u964b
aV\u964c
aV\u964d
aV\u9650
aV\u9662
aV\u9664
aV\u9669
aV\u966a
aV\u9672
aV\u9675
aV\u9677
aV\u968f
aV\u9690
aV\u9694
aV\u969c
aV\u96a7
aV\u96b6
aV\u96be
aV\u96c0
aV\u96c1
aV\u96c4
aV\u96c5
aV\u96c6
aV\u96cf
aV\u96d5
aV\u96e8
aV\u96ea
aV\u96f6
aV\u96f7
aV\u96fe
aV\u9700
aV\u9707
aV\u9713
aV\u971c
aV\u971e
aV\u9732
aV\u9738
aV\u9752
aV\u9759
aV\u975e
aV\u9760
aV\u9762
aV\u978b
aV\u9798
aV\u97a0
aV\u97f3
aV\u97f5
aV\u9875
aV\u9876
aV\u9877
aV\u9879
aV\u987a
aV\u987b
aV\u987d
aV\u987e
aV\u9881
aV\u9882
aV\u9884
aV\u9886
aV\u988a
aV\u9890
aV\u9891
aV\u9893
aV\u9897
aV\u9898
aV\u989c
aV\u98a0
aV\u98ce
aV\u98d8
aV\u98d9
aV\u98de
aV\u98df
aV\u9910
aV\u9965
aV\u996d
aV\u996e
aV\u9970
aV\u9971
aV\u9976
aV\u9977
aV\u997a
aV\u997c
aV\u997f
aV\u9986
aV\u9996
aV\u9999
aV\u99a8
aV\u9a6c
aV\u9a6d
aV\u9a6f
aV\u9a71
aV\u9a73
aV\u9a74
aV\u9a7b
aV\u9a7e
aV\u9a82
aV\u9a84
aV\u9a91
aV\u9a97
aV\u9a9a
aV\u9aa4
aV\u9aa8
aV\u9ab7
aV\u9ac5
aV\u9ad8
aV\u9b3c
aV\u9b42
aV\u9b45
aV\u9b4f
aV\u9b54
aV\u9c7c
aV\u9c81
aV\u9c9c
aV\u9ca4
aV\u9ca8
aV\u9cc5
aV\u9cd6
aV\u9e1f
aV\u9e20
aV\u9e21
aV\u9e23
aV\u9e25
aV\u9e26
aV\u9e3d
aV\u9e45
aV\u9e64
aV\u9e70
aV\u9e7f
aV\u9ea6
aV\u9ebb
aV\u9ebc
aV\u9ebd
aV\u9ec4
aV\u9ece
aV\u9ed1
aV\u9ed8
aV\u9edb
aV\u9eef
aV\u9f13
aV\u9f20
aV\u9f3b
aV\u9f50
aV\u9f7f
aV\u9f99
aV\u9f9b
aV\u9f9f
a.